target datalayout = "e-m:e-p270:32:32-p271:32:32-p272:64:64-i64:64-i128:128-f80:128-n8:16:32:64-S128"
target triple = "x86_64-pc-linux-gnu"

%"struct.OpenImageIO::v3_1_0::TagInfo" = type { i32, ptr, i32, i32, ptr }
%"class.OpenImageIO::v3_1_0::span" = type { ptr, i64 }
%"class.OpenImageIO::v3_1_0::basic_string_view" = type { ptr, i64 }

@.str = private unnamed_addr constant [5 x i8] c"Exif\00", align 1
@.str.1 = private unnamed_addr constant [4 x i8] c"GPS\00", align 1
@_ZN11OpenImageIO6v3_1_0L14tiff_tag_tableE = internal global [21 x %"struct.OpenImageIO::v3_1_0::TagInfo"] zeroinitializer, align 16
@_ZN11OpenImageIO6v3_1_0L14exif_tag_tableE = internal global [104 x %"struct.OpenImageIO::v3_1_0::TagInfo"] zeroinitializer, align 16
@_ZN11OpenImageIO6v3_1_0L13gps_tag_tableE = internal global [32 x %"struct.OpenImageIO::v3_1_0::TagInfo"] zeroinitializer, align 16

; Function Attrs: mustprogress nounwind uwtable
define linkonce_odr noundef i32 @_ZNSt11char_traitsIcE7compareEPKcS2_m(ptr noundef %0, ptr noundef %1, i64 noundef %2) #7 comdat align 2 {
  %4 = alloca i32, align 4
  %5 = alloca ptr, align 8
  %6 = alloca ptr, align 8
  %7 = alloca i64, align 8
  store ptr %0, ptr %5, align 8, !tbaa !64
  store ptr %1, ptr %6, align 8, !tbaa !64
  store i64 %2, ptr %7, align 8, !tbaa !13
  %8 = load i64, ptr %7, align 8, !tbaa !13
  %9 = icmp eq i64 %8, 0
  br i1 %9, label %10, label %11

10:                                               ; preds = %3
  store i32 0, ptr %4, align 4
  br label %16

11:                                               ; preds = %3
  %12 = load ptr, ptr %5, align 8, !tbaa !64
  %13 = load ptr, ptr %6, align 8, !tbaa !64
  %14 = load i64, ptr %7, align 8, !tbaa !13
  %15 = call i32 @memcmp(ptr noundef %12, ptr noundef %13, i64 noundef %14) #3
  store i32 %15, ptr %4, align 4
  br label %16

16:                                               ; preds = %11, %10
  %17 = load i32, ptr %4, align 4
  ret i32 %17
}

; Function Attrs: inlinehint mustprogress nounwind uwtable
define linkonce_odr noundef nonnull align 8 dereferenceable(8) ptr @_ZSt3minImERKT_S2_S2_(ptr noundef nonnull align 8 dereferenceable(8) %0, ptr noundef nonnull align 8 dereferenceable(8) %1) #13 comdat {
  %3 = alloca ptr, align 8
  %4 = alloca ptr, align 8
  %5 = alloca ptr, align 8
  store ptr %0, ptr %4, align 8, !tbaa !139
  store ptr %1, ptr %5, align 8, !tbaa !139
  %6 = load ptr, ptr %5, align 8, !tbaa !139
  %7 = load i64, ptr %6, align 8, !tbaa !13
  %8 = load ptr, ptr %4, align 8, !tbaa !139
  %9 = load i64, ptr %8, align 8, !tbaa !13
  %10 = icmp ult i64 %7, %9
  br i1 %10, label %11, label %13

11:                                               ; preds = %2
  %12 = load ptr, ptr %5, align 8, !tbaa !139
  store ptr %12, ptr %3, align 8
  br label %15

13:                                               ; preds = %2
  %14 = load ptr, ptr %4, align 8, !tbaa !139
  store ptr %14, ptr %3, align 8
  br label %15

15:                                               ; preds = %13, %11
  %16 = load ptr, ptr %3, align 8
  ret ptr %16
}

; Function Attrs: noinline noreturn nounwind uwtable
define linkonce_odr hidden void @__clang_call_terminate(ptr noundef %0) #16 comdat {
  %2 = call ptr @__cxa_begin_catch(ptr %0) #3
  call void @_ZSt9terminatev() #22
  unreachable
}

; Function Attrs: mustprogress nounwind uwtable
define linkonce_odr hidden noundef i32 @_ZNK11OpenImageIO6v3_1_017basic_string_viewIcSt11char_traitsIcEE7compareES4_(ptr noundef nonnull align 8 dereferenceable(16) %0, ptr noundef %1) #7 comdat align 2 {
  %3 = alloca ptr, align 8
  %4 = alloca ptr, align 8
  %5 = alloca i32, align 4
  store ptr %0, ptr %3, align 8, !tbaa !8
  store ptr %1, ptr %4, align 8, !tbaa !8
  %6 = load ptr, ptr %3, align 8
  call void @llvm.lifetime.start.p0(i64 4, ptr %5) #3
  %7 = getelementptr inbounds nuw %"class.OpenImageIO::v3_1_0::basic_string_view", ptr %6, i32 0, i32 0
  %8 = load ptr, ptr %7, align 8, !tbaa !15
  %9 = getelementptr inbounds nuw %"class.OpenImageIO::v3_1_0::basic_string_view", ptr %1, i32 0, i32 0
  %10 = load ptr, ptr %9, align 8, !tbaa !15
  %11 = getelementptr inbounds nuw %"class.OpenImageIO::v3_1_0::basic_string_view", ptr %6, i32 0, i32 1
  %12 = getelementptr inbounds nuw %"class.OpenImageIO::v3_1_0::basic_string_view", ptr %1, i32 0, i32 1
  %13 = call noundef nonnull align 8 dereferenceable(8) ptr @_ZSt3minImERKT_S2_S2_(ptr noundef nonnull align 8 dereferenceable(8) %11, ptr noundef nonnull align 8 dereferenceable(8) %12)
  %14 = load i64, ptr %13, align 8, !tbaa !13
  %15 = call noundef i32 @_ZNSt11char_traitsIcE7compareEPKcS2_m(ptr noundef %8, ptr noundef %10, i64 noundef %14)
  store i32 %15, ptr %5, align 4, !tbaa !32
  %16 = load i32, ptr %5, align 4, !tbaa !32
  %17 = icmp ne i32 %16, 0
  br i1 %17, label %18, label %20

18:                                               ; preds = %2
  %19 = load i32, ptr %5, align 4, !tbaa !32
  br label %28

20:                                               ; preds = %2
  %21 = getelementptr inbounds nuw %"class.OpenImageIO::v3_1_0::basic_string_view", ptr %6, i32 0, i32 1
  %22 = load i64, ptr %21, align 8, !tbaa !18
  %23 = trunc i64 %22 to i32
  %24 = getelementptr inbounds nuw %"class.OpenImageIO::v3_1_0::basic_string_view", ptr %1, i32 0, i32 1
  %25 = load i64, ptr %24, align 8, !tbaa !18
  %26 = trunc i64 %25 to i32
  %27 = sub nsw i32 %23, %26
  br label %28

28:                                               ; preds = %20, %18
  %29 = phi i32 [ %19, %18 ], [ %27, %20 ]
  call void @llvm.lifetime.end.p0(i64 4, ptr %5) #3
  ret i32 %29
}

; Function Attrs: mustprogress nounwind uwtable
define linkonce_odr noundef i64 @_ZNSt11char_traitsIcE6lengthEPKc(ptr noundef %0) #7 comdat align 2 {
  %2 = alloca ptr, align 8
  store ptr %0, ptr %2, align 8, !tbaa !64
  %3 = load ptr, ptr %2, align 8, !tbaa !64
  %4 = call i64 @strlen(ptr noundef %3) #3
  ret i64 %4
}

; Function Attrs: mustprogress nounwind uwtable
define linkonce_odr hidden noundef i64 @_ZNK11OpenImageIO6v3_1_017basic_string_viewIcSt11char_traitsIcEE4sizeEv(ptr noundef nonnull align 8 dereferenceable(16) %0) #7 comdat align 2 {
  %2 = alloca ptr, align 8
  store ptr %0, ptr %2, align 8, !tbaa !8
  %3 = load ptr, ptr %2, align 8
  %4 = getelementptr inbounds nuw %"class.OpenImageIO::v3_1_0::basic_string_view", ptr %3, i32 0, i32 1
  %5 = load i64, ptr %4, align 8, !tbaa !18
  ret i64 %5
}

; Function Attrs: mustprogress nounwind uwtable
define linkonce_odr hidden noundef ptr @_ZNK11OpenImageIO6v3_1_017basic_string_viewIcSt11char_traitsIcEE4dataEv(ptr noundef nonnull align 8 dereferenceable(16) %0) #7 comdat align 2 {
  %2 = alloca ptr, align 8
  store ptr %0, ptr %2, align 8, !tbaa !8
  %3 = load ptr, ptr %2, align 8
  %4 = getelementptr inbounds nuw %"class.OpenImageIO::v3_1_0::basic_string_view", ptr %3, i32 0, i32 0
  %5 = load ptr, ptr %4, align 8, !tbaa !15
  ret ptr %5
}

; Function Attrs: mustprogress nounwind uwtable
define linkonce_odr hidden void @_ZN11OpenImageIO6v3_1_04spanIKNS0_7TagInfoELm18446744073709551615EEC2ILm21EEERAT__S3_(ptr noundef nonnull align 8 dereferenceable(16) %0, ptr noundef nonnull align 8 dereferenceable(672) %1) unnamed_addr #7 comdat align 2 {
  %3 = alloca ptr, align 8
  %4 = alloca ptr, align 8
  store ptr %0, ptr %3, align 8, !tbaa !21
  store ptr %1, ptr %4, align 8, !tbaa !11
  %5 = load ptr, ptr %3, align 8
  %6 = getelementptr inbounds nuw %"class.OpenImageIO::v3_1_0::span", ptr %5, i32 0, i32 0
  %7 = load ptr, ptr %4, align 8, !tbaa !11
  %8 = getelementptr inbounds [21 x %"struct.OpenImageIO::v3_1_0::TagInfo"], ptr %7, i64 0, i64 0
  store ptr %8, ptr %6, align 8, !tbaa !97
  %9 = getelementptr inbounds nuw %"class.OpenImageIO::v3_1_0::span", ptr %5, i32 0, i32 1
  store i64 21, ptr %9, align 8, !tbaa !99
  ret void
}

; Function Attrs: mustprogress nounwind uwtable
define linkonce_odr hidden void @_ZN11OpenImageIO6v3_1_04spanIKNS0_7TagInfoELm18446744073709551615EEC2ILm32EEERAT__S3_(ptr noundef nonnull align 8 dereferenceable(16) %0, ptr noundef nonnull align 8 dereferenceable(1024) %1) unnamed_addr #7 comdat align 2 {
  %3 = alloca ptr, align 8
  %4 = alloca ptr, align 8
  store ptr %0, ptr %3, align 8, !tbaa !21
  store ptr %1, ptr %4, align 8, !tbaa !11
  %5 = load ptr, ptr %3, align 8
  %6 = getelementptr inbounds nuw %"class.OpenImageIO::v3_1_0::span", ptr %5, i32 0, i32 0
  %7 = load ptr, ptr %4, align 8, !tbaa !11
  %8 = getelementptr inbounds [32 x %"struct.OpenImageIO::v3_1_0::TagInfo"], ptr %7, i64 0, i64 0
  store ptr %8, ptr %6, align 8, !tbaa !97
  %9 = getelementptr inbounds nuw %"class.OpenImageIO::v3_1_0::span", ptr %5, i32 0, i32 1
  store i64 32, ptr %9, align 8, !tbaa !99
  ret void
}

; Function Attrs: mustprogress nounwind uwtable
define linkonce_odr hidden void @_ZN11OpenImageIO6v3_1_04spanIKNS0_7TagInfoELm18446744073709551615EEC2ILm104EEERAT__S3_(ptr noundef nonnull align 8 dereferenceable(16) %0, ptr noundef nonnull align 8 dereferenceable(3328) %1) unnamed_addr #7 comdat align 2 {
  %3 = alloca ptr, align 8
  %4 = alloca ptr, align 8
  store ptr %0, ptr %3, align 8, !tbaa !21
  store ptr %1, ptr %4, align 8, !tbaa !11
  %5 = load ptr, ptr %3, align 8
  %6 = getelementptr inbounds nuw %"class.OpenImageIO::v3_1_0::span", ptr %5, i32 0, i32 0
  %7 = load ptr, ptr %4, align 8, !tbaa !11
  %8 = getelementptr inbounds [104 x %"struct.OpenImageIO::v3_1_0::TagInfo"], ptr %7, i64 0, i64 0
  store ptr %8, ptr %6, align 8, !tbaa !97
  %9 = getelementptr inbounds nuw %"class.OpenImageIO::v3_1_0::span", ptr %5, i32 0, i32 1
  store i64 104, ptr %9, align 8, !tbaa !99
  ret void
}

; Function Attrs: mustprogress nounwind uwtable
define linkonce_odr hidden noundef zeroext i1 @_ZN11OpenImageIO6v3_1_0eqENS0_17basic_string_viewIcSt11char_traitsIcEEES4_(ptr noundef %0, ptr noundef %1) #7 comdat personality ptr @__gxx_personality_v0 {
  %3 = alloca ptr, align 8
  %4 = alloca ptr, align 8
  %5 = alloca %"class.OpenImageIO::v3_1_0::basic_string_view", align 8
  store ptr %0, ptr %3, align 8, !tbaa !8
  store ptr %1, ptr %4, align 8, !tbaa !8
  %6 = call noundef i64 @_ZNK11OpenImageIO6v3_1_017basic_string_viewIcSt11char_traitsIcEE4sizeEv(ptr noundef nonnull align 8 dereferenceable(16) %0) #3
  %7 = call noundef i64 @_ZNK11OpenImageIO6v3_1_017basic_string_viewIcSt11char_traitsIcEE4sizeEv(ptr noundef nonnull align 8 dereferenceable(16) %1) #3
  %8 = icmp eq i64 %6, %7
  br i1 %8, label %9, label %13

9:                                                ; preds = %2
  invoke void @_ZN11OpenImageIO6v3_1_017basic_string_viewIcSt11char_traitsIcEEC2ERKS4_(ptr noundef nonnull align 8 dereferenceable(16) %5, ptr noundef nonnull align 8 dereferenceable(16) %1)
          to label %10 unwind label %16

10:                                               ; preds = %9
  %11 = call noundef i32 @_ZNK11OpenImageIO6v3_1_017basic_string_viewIcSt11char_traitsIcEE7compareES4_(ptr noundef nonnull align 8 dereferenceable(16) %0, ptr noundef %5) #3
  %12 = icmp eq i32 %11, 0
  br label %14

13:                                               ; preds = %2
  br label %14

14:                                               ; preds = %13, %10
  %15 = phi i1 [ %12, %10 ], [ false, %13 ]
  ret i1 %15

16:                                               ; preds = %9
  %17 = landingpad { ptr, i32 }
          catch ptr null
  %18 = extractvalue { ptr, i32 } %17, 0
  call void @__clang_call_terminate(ptr %18) #22
  unreachable
}

; Function Attrs: mustprogress nounwind uwtable
define linkonce_odr hidden void @_ZN11OpenImageIO6v3_1_017basic_string_viewIcSt11char_traitsIcEEC2EPKc(ptr noundef nonnull align 8 dereferenceable(16) %0, ptr noundef %1) unnamed_addr #7 comdat align 2 {
  %3 = alloca ptr, align 8
  %4 = alloca ptr, align 8
  store ptr %0, ptr %3, align 8, !tbaa !8
  store ptr %1, ptr %4, align 8, !tbaa !64
  %5 = load ptr, ptr %3, align 8
  %6 = getelementptr inbounds nuw %"class.OpenImageIO::v3_1_0::basic_string_view", ptr %5, i32 0, i32 0
  %7 = load ptr, ptr %4, align 8, !tbaa !64
  store ptr %7, ptr %6, align 8, !tbaa !15
  %8 = getelementptr inbounds nuw %"class.OpenImageIO::v3_1_0::basic_string_view", ptr %5, i32 0, i32 1
  %9 = load ptr, ptr %4, align 8, !tbaa !64
  %10 = icmp ne ptr %9, null
  br i1 %10, label %11, label %14

11:                                               ; preds = %2
  %12 = load ptr, ptr %4, align 8, !tbaa !64
  %13 = call noundef i64 @_ZNSt11char_traitsIcE6lengthEPKc(ptr noundef %12)
  br label %15

14:                                               ; preds = %2
  br label %15

15:                                               ; preds = %14, %11
  %16 = phi i64 [ %13, %11 ], [ 0, %14 ]
  store i64 %16, ptr %8, align 8, !tbaa !18
  ret void
}

; Function Attrs: mustprogress nounwind uwtable
define linkonce_odr hidden void @_ZN11OpenImageIO6v3_1_017basic_string_viewIcSt11char_traitsIcEEC2ERKS4_(ptr noundef nonnull align 8 dereferenceable(16) %0, ptr noundef nonnull align 8 dereferenceable(16) %1) unnamed_addr #7 comdat align 2 {
  %3 = alloca ptr, align 8
  %4 = alloca ptr, align 8
  store ptr %0, ptr %3, align 8, !tbaa !8
  store ptr %1, ptr %4, align 8, !tbaa !8
  %5 = load ptr, ptr %3, align 8
  %6 = getelementptr inbounds nuw %"class.OpenImageIO::v3_1_0::basic_string_view", ptr %5, i32 0, i32 0
  %7 = load ptr, ptr %4, align 8, !tbaa !8
  %8 = call noundef ptr @_ZNK11OpenImageIO6v3_1_017basic_string_viewIcSt11char_traitsIcEE4dataEv(ptr noundef nonnull align 8 dereferenceable(16) %7) #3
  store ptr %8, ptr %6, align 8, !tbaa !15
  %9 = getelementptr inbounds nuw %"class.OpenImageIO::v3_1_0::basic_string_view", ptr %5, i32 0, i32 1
  %10 = load ptr, ptr %4, align 8, !tbaa !8
  %11 = call noundef i64 @_ZNK11OpenImageIO6v3_1_017basic_string_viewIcSt11char_traitsIcEE4sizeEv(ptr noundef nonnull align 8 dereferenceable(16) %10) #3
  store i64 %11, ptr %9, align 8, !tbaa !18
  ret void
}

; Function Attrs: mustprogress uwtable
define { ptr, i64 } @_ZN11OpenImageIO6v3_1_09tag_tableENS0_17basic_string_viewIcSt11char_traitsIcEEE(ptr noundef %0) #5 {
  %2 = alloca %"class.OpenImageIO::v3_1_0::span", align 8
  %3 = alloca ptr, align 8
  %4 = alloca %"class.OpenImageIO::v3_1_0::basic_string_view", align 8
  %5 = alloca %"class.OpenImageIO::v3_1_0::basic_string_view", align 8
  %6 = alloca %"class.OpenImageIO::v3_1_0::basic_string_view", align 8
  %7 = alloca %"class.OpenImageIO::v3_1_0::basic_string_view", align 8
  store ptr %0, ptr %3, align 8, !tbaa !8
  call void @_ZN11OpenImageIO6v3_1_017basic_string_viewIcSt11char_traitsIcEEC2ERKS4_(ptr noundef nonnull align 8 dereferenceable(16) %4, ptr noundef nonnull align 8 dereferenceable(16) %0)
  call void @_ZN11OpenImageIO6v3_1_017basic_string_viewIcSt11char_traitsIcEEC2EPKc(ptr noundef nonnull align 8 dereferenceable(16) %5, ptr noundef @.str) #3
  %8 = call noundef zeroext i1 @_ZN11OpenImageIO6v3_1_0eqENS0_17basic_string_viewIcSt11char_traitsIcEEES4_(ptr noundef %4, ptr noundef %5) #3
  br i1 %8, label %9, label %10

9:                                                ; preds = %1
  call void @_ZN11OpenImageIO6v3_1_04spanIKNS0_7TagInfoELm18446744073709551615EEC2ILm104EEERAT__S3_(ptr noundef nonnull align 8 dereferenceable(16) %2, ptr noundef nonnull align 8 dereferenceable(3328) @_ZN11OpenImageIO6v3_1_0L14exif_tag_tableE) #3
  br label %14

10:                                               ; preds = %1
  call void @_ZN11OpenImageIO6v3_1_017basic_string_viewIcSt11char_traitsIcEEC2ERKS4_(ptr noundef nonnull align 8 dereferenceable(16) %6, ptr noundef nonnull align 8 dereferenceable(16) %0)
  call void @_ZN11OpenImageIO6v3_1_017basic_string_viewIcSt11char_traitsIcEEC2EPKc(ptr noundef nonnull align 8 dereferenceable(16) %7, ptr noundef @.str.1) #3
  %11 = call noundef zeroext i1 @_ZN11OpenImageIO6v3_1_0eqENS0_17basic_string_viewIcSt11char_traitsIcEEES4_(ptr noundef %6, ptr noundef %7) #3
  br i1 %11, label %12, label %13

12:                                               ; preds = %10
  call void @_ZN11OpenImageIO6v3_1_04spanIKNS0_7TagInfoELm18446744073709551615EEC2ILm32EEERAT__S3_(ptr noundef nonnull align 8 dereferenceable(16) %2, ptr noundef nonnull align 8 dereferenceable(1024) @_ZN11OpenImageIO6v3_1_0L13gps_tag_tableE) #3
  br label %14

13:                                               ; preds = %10
  call void @_ZN11OpenImageIO6v3_1_04spanIKNS0_7TagInfoELm18446744073709551615EEC2ILm21EEERAT__S3_(ptr noundef nonnull align 8 dereferenceable(16) %2, ptr noundef nonnull align 8 dereferenceable(672) @_ZN11OpenImageIO6v3_1_0L14tiff_tag_tableE) #3
  br label %14

14:                                               ; preds = %13, %12, %9
  %15 = load { ptr, i64 }, ptr %2, align 8
  ret { ptr, i64 } %15
}