; Function Attrs: mustprogress nofree nounwind willreturn memory(read, inaccessiblemem: none) uwtable
define { ptr, i64 } @_ZN11OpenImageIO6v3_1_09tag_tableENS0_17basic_string_viewIcSt11char_traitsIcEEE(ptr noundef readonly captures(none) %0) local_unnamed_addr #14 personality ptr @__gxx_personality_v0 {
  %2 = load ptr, ptr %0, align 8, !tbaa !3
  %3 = getelementptr inbounds nuw i8, ptr %0, i64 8
  %4 = load i64, ptr %3, align 8, !tbaa !10
  switch i64 %4, label %5 [
    i64 4, label %_ZNSt11char_traitsIcE7compareEPKcS2_m.exit.i.i
    i64 3, label %_ZNSt11char_traitsIcE7compareEPKcS2_m.exit.i.i1
  ]

_ZNSt11char_traitsIcE7compareEPKcS2_m.exit.i.i:   ; preds = %1
  %bcmp.i = tail call i32 @bcmp(ptr noundef nonnull dereferenceable(4) %2, ptr noundef nonnull dereferenceable(4) @.str, i64 4)
  %.not.i.i = icmp eq i32 %bcmp.i, 0
  br i1 %.not.i.i, label %_ZN11OpenImageIO6v3_1_0eqENS0_17basic_string_viewIcSt11char_traitsIcEEES4_.exit, label %5

_ZNSt11char_traitsIcE7compareEPKcS2_m.exit.i.i1:  ; preds = %1
  %bcmp.i2 = tail call i32 @bcmp(ptr noundef nonnull dereferenceable(3) %2, ptr noundef nonnull dereferenceable(3) @.str.1, i64 3)
  %.not.i.i3 = icmp eq i32 %bcmp.i2, 0
  br i1 %.not.i.i3, label %_ZN11OpenImageIO6v3_1_0eqENS0_17basic_string_viewIcSt11char_traitsIcEEES4_.exit, label %5

5:                                                ; preds = %_ZNSt11char_traitsIcE7compareEPKcS2_m.exit.i.i, %1, %_ZNSt11char_traitsIcE7compareEPKcS2_m.exit.i.i1
  br label %_ZN11OpenImageIO6v3_1_0eqENS0_17basic_string_viewIcSt11char_traitsIcEEES4_.exit

_ZN11OpenImageIO6v3_1_0eqENS0_17basic_string_viewIcSt11char_traitsIcEEES4_.exit: ; preds = %_ZNSt11char_traitsIcE7compareEPKcS2_m.exit.i.i1, %_ZNSt11char_traitsIcE7compareEPKcS2_m.exit.i.i, %5
  %.sroa.012.0 = phi ptr [ @_ZN11OpenImageIO6v3_1_0L14tiff_tag_tableE, %5 ], [ @_ZN11OpenImageIO6v3_1_0L14exif_tag_tableE, %_ZNSt11char_traitsIcE7compareEPKcS2_m.exit.i.i ], [ @_ZN11OpenImageIO6v3_1_0L13gps_tag_tableE, %_ZNSt11char_traitsIcE7compareEPKcS2_m.exit.i.i1 ]
  %.sroa.4.0 = phi i64 [ 21, %5 ], [ 104, %_ZNSt11char_traitsIcE7compareEPKcS2_m.exit.i.i ], [ 32, %_ZNSt11char_traitsIcE7compareEPKcS2_m.exit.i.i1 ]
  %.fca.0.insert = insertvalue { ptr, i64 } poison, ptr %.sroa.012.0, 0
  %.fca.1.insert = insertvalue { ptr, i64 } %.fca.0.insert, i64 %.sroa.4.0, 1
  ret { ptr, i64 } %.fca.1.insert
}